; Function Attrs: mustprogress nofree norecurse nosync nounwind willreturn memory(argmem: read) uwtable
define noundef zeroext i1 @_ZNK32pxrInternal_v0_24__pxrReserved__17TsTest_SplineData15InnerLoopParamsneERKS1_(ptr nocapture noundef nonnull readonly align 8 dereferenceable(56) %0, ptr nocapture noundef nonnull readonly align 8 dereferenceable(56) %1) local_unnamed_addr #4 align 2 {
  %3 = load i8, ptr %0, align 8
  %4 = load i8, ptr %1, align 8
  %5 = xor i8 %4, %3
  %6 = and i8 %5, 1
  %7 = icmp eq i8 %6, 0
  br i1 %7, label %8, label %_ZNK32pxrInternal_v0_24__pxrReserved__17TsTest_SplineData15InnerLoopParamseqERKS1_.exit

8:                                                ; preds = %2
  %9 = getelementptr inbounds nuw i8, ptr %0, i64 8
  %10 = load double, ptr %9, align 8
  %11 = getelementptr inbounds nuw i8, ptr %1, i64 8
  %12 = load double, ptr %11, align 8
  %13 = fcmp oeq double %10, %12
  br i1 %13, label %14, label %_ZNK32pxrInternal_v0_24__pxrReserved__17TsTest_SplineData15InnerLoopParamseqERKS1_.exit

14:                                               ; preds = %8
  %15 = getelementptr inbounds nuw i8, ptr %0, i64 16
  %16 = load double, ptr %15, align 8
  %17 = getelementptr inbounds nuw i8, ptr %1, i64 16
  %18 = load double, ptr %17, align 8
  %19 = fcmp oeq double %16, %18
  br i1 %19, label %20, label %_ZNK32pxrInternal_v0_24__pxrReserved__17TsTest_SplineData15InnerLoopParamseqERKS1_.exit

20:                                               ; preds = %14
  %21 = getelementptr inbounds nuw i8, ptr %0, i64 24
  %22 = load double, ptr %21, align 8
  %23 = getelementptr inbounds nuw i8, ptr %1, i64 24
  %24 = load double, ptr %23, align 8
  %25 = fcmp oeq double %22, %24
  br i1 %25, label %26, label %_ZNK32pxrInternal_v0_24__pxrReserved__17TsTest_SplineData15InnerLoopParamseqERKS1_.exit

26:                                               ; preds = %20
  %27 = getelementptr inbounds nuw i8, ptr %0, i64 32
  %28 = load double, ptr %27, align 8
  %29 = getelementptr inbounds nuw i8, ptr %1, i64 32
  %30 = load double, ptr %29, align 8
  %31 = fcmp oeq double %28, %30
  br i1 %31, label %32, label %_ZNK32pxrInternal_v0_24__pxrReserved__17TsTest_SplineData15InnerLoopParamseqERKS1_.exit

32:                                               ; preds = %26
  %33 = getelementptr inbounds nuw i8, ptr %0, i64 40
  %34 = load i8, ptr %33, align 8
  %35 = getelementptr inbounds nuw i8, ptr %1, i64 40
  %36 = load i8, ptr %35, align 8
  %37 = xor i8 %36, %34
  %38 = and i8 %37, 1
  %39 = icmp eq i8 %38, 0
  br i1 %39, label %40, label %_ZNK32pxrInternal_v0_24__pxrReserved__17TsTest_SplineData15InnerLoopParamseqERKS1_.exit

40:                                               ; preds = %32
  %41 = getelementptr inbounds nuw i8, ptr %0, i64 48
  %42 = load double, ptr %41, align 8
  %43 = getelementptr inbounds nuw i8, ptr %1, i64 48
  %44 = load double, ptr %43, align 8
  %45 = fcmp une double %42, %44
  br label %_ZNK32pxrInternal_v0_24__pxrReserved__17TsTest_SplineData15InnerLoopParamseqERKS1_.exit

_ZNK32pxrInternal_v0_24__pxrReserved__17TsTest_SplineData15InnerLoopParamseqERKS1_.exit: ; preds = %2, %8, %14, %20, %26, %32, %40
  %46 = phi i1 [ true, %32 ], [ true, %26 ], [ true, %20 ], [ true, %14 ], [ true, %8 ], [ true, %2 ], [ %45, %40 ]
  ret i1 %46
}